target datalayout = "e-m:e-p270:32:32-p271:32:32-p272:64:64-i64:64-i128:128-f80:128-n8:16:32:64-S128"
target triple = "x86_64-pc-linux-gnu"

%struct.trans_open_t = type { ptr, i32 }

@transcoder_table = internal global ptr null, align 8

; Function Attrs: nounwind sspstrong uwtable
define internal ptr @get_transcoder_entry(ptr noundef %0, ptr noundef %1) #0 {
  %3 = alloca ptr, align 8
  %4 = alloca ptr, align 8
  %5 = alloca ptr, align 8
  %6 = alloca i64, align 8
  %7 = alloca ptr, align 8
  %8 = alloca i32, align 4
  store ptr %0, ptr %4, align 8, !tbaa !21
  store ptr %1, ptr %5, align 8, !tbaa !21
  call void @llvm.lifetime.start.p0(i64 8, ptr %6) #25
  call void @llvm.lifetime.start.p0(i64 8, ptr %7) #25
  %9 = load ptr, ptr @transcoder_table, align 8, !tbaa !7
  %10 = load ptr, ptr %4, align 8, !tbaa !21
  %11 = ptrtoint ptr %10 to i64
  %12 = call i32 @rb_st_lookup(ptr noundef %9, i64 noundef %11, ptr noundef %6)
  %13 = icmp ne i32 %12, 0
  br i1 %13, label %15, label %14

14:                                               ; preds = %2
  store ptr null, ptr %3, align 8
  store i32 1, ptr %8, align 4
  br label %27

15:                                               ; preds = %2
  %16 = load i64, ptr %6, align 8, !tbaa !12
  %17 = inttoptr i64 %16 to ptr
  store ptr %17, ptr %7, align 8, !tbaa !7
  %18 = load ptr, ptr %7, align 8, !tbaa !7
  %19 = load ptr, ptr %5, align 8, !tbaa !21
  %20 = ptrtoint ptr %19 to i64
  %21 = call i32 @rb_st_lookup(ptr noundef %18, i64 noundef %20, ptr noundef %6)
  %22 = icmp ne i32 %21, 0
  br i1 %22, label %24, label %23

23:                                               ; preds = %15
  store ptr null, ptr %3, align 8
  store i32 1, ptr %8, align 4
  br label %27

24:                                               ; preds = %15
  %25 = load i64, ptr %6, align 8, !tbaa !12
  %26 = inttoptr i64 %25 to ptr
  store ptr %26, ptr %3, align 8
  store i32 1, ptr %8, align 4
  br label %27

27:                                               ; preds = %24, %23, %14
  call void @llvm.lifetime.end.p0(i64 8, ptr %7) #25
  call void @llvm.lifetime.end.p0(i64 8, ptr %6) #25
  %28 = load ptr, ptr %3, align 8
  ret ptr %28
}

; Function Attrs: nounwind sspstrong uwtable
define internal void @trans_open_i(ptr noundef %0, ptr noundef %1, i32 noundef %2, ptr noundef %3) #0 {
  %5 = alloca ptr, align 8
  %6 = alloca ptr, align 8
  %7 = alloca i32, align 4
  %8 = alloca ptr, align 8
  %9 = alloca ptr, align 8
  store ptr %0, ptr %5, align 8, !tbaa !21
  store ptr %1, ptr %6, align 8, !tbaa !21
  store i32 %2, ptr %7, align 4, !tbaa !29
  store ptr %3, ptr %8, align 8, !tbaa !23
  call void @llvm.lifetime.start.p0(i64 8, ptr %9) #25
  %10 = load ptr, ptr %8, align 8, !tbaa !23
  store ptr %10, ptr %9, align 8, !tbaa !146
  %11 = load ptr, ptr %9, align 8, !tbaa !146
  %12 = getelementptr inbounds nuw %struct.trans_open_t, ptr %11, i32 0, i32 0
  %13 = load ptr, ptr %12, align 8, !tbaa !42
  %14 = icmp ne ptr %13, null
  br i1 %14, label %26, label %15

15:                                               ; preds = %4
  %16 = load i32, ptr %7, align 4, !tbaa !29
  %17 = add i32 %16, 1
  %18 = load ptr, ptr %9, align 8, !tbaa !146
  %19 = getelementptr inbounds nuw %struct.trans_open_t, ptr %18, i32 0, i32 1
  %20 = load i32, ptr %19, align 8, !tbaa !44
  %21 = add i32 %17, %20
  %22 = sext i32 %21 to i64
  %23 = call noalias nonnull ptr @ruby_xmalloc2(i64 noundef %22, i64 noundef 8) #34
  %24 = load ptr, ptr %9, align 8, !tbaa !146
  %25 = getelementptr inbounds nuw %struct.trans_open_t, ptr %24, i32 0, i32 0
  store ptr %23, ptr %25, align 8, !tbaa !42
  br label %26

26:                                               ; preds = %15, %4
  %27 = load ptr, ptr %5, align 8, !tbaa !21
  %28 = load ptr, ptr %6, align 8, !tbaa !21
  %29 = call ptr @get_transcoder_entry(ptr noundef %27, ptr noundef %28)
  %30 = load ptr, ptr %9, align 8, !tbaa !146
  %31 = getelementptr inbounds nuw %struct.trans_open_t, ptr %30, i32 0, i32 0
  %32 = load ptr, ptr %31, align 8, !tbaa !42
  %33 = load i32, ptr %7, align 4, !tbaa !29
  %34 = sext i32 %33 to i64
  %35 = getelementptr ptr, ptr %32, i64 %34
  store ptr %29, ptr %35, align 8, !tbaa !23
  call void @llvm.lifetime.end.p0(i64 8, ptr %9) #25
  ret void
}