; Function Attrs: nounwind sspstrong uwtable
define internal void @trans_open_i(ptr noundef %0, ptr noundef %1, i32 noundef %2, ptr noundef captures(none) %3) #0 {
  %5 = alloca i64, align 8
  %6 = load ptr, ptr %3, align 8, !tbaa !28
  %.not = icmp eq ptr %6, null
  br i1 %.not, label %7, label %14

7:                                                ; preds = %4
  %8 = add i32 %2, 1
  %9 = getelementptr inbounds nuw i8, ptr %3, i64 8
  %10 = load i32, ptr %9, align 8, !tbaa !30
  %11 = add i32 %8, %10
  %12 = sext i32 %11 to i64
  %13 = tail call noalias nonnull ptr @ruby_xmalloc2(i64 noundef %12, i64 noundef 8) #26
  store ptr %13, ptr %3, align 8, !tbaa !28
  br label %14

14:                                               ; preds = %7, %4
  call void @llvm.lifetime.start.p0(i64 8, ptr nonnull %5) #22
  %15 = load ptr, ptr @transcoder_table, align 8, !tbaa !7
  %16 = ptrtoint ptr %0 to i64
  %17 = call i32 @rb_st_lookup(ptr noundef %15, i64 noundef %16, ptr noundef nonnull %5) #22
  %.not.i = icmp eq i32 %17, 0
  br i1 %.not.i, label %get_transcoder_entry.exit, label %18

18:                                               ; preds = %14
  %19 = load i64, ptr %5, align 8, !tbaa !22
  %20 = inttoptr i64 %19 to ptr
  %21 = ptrtoint ptr %1 to i64
  %22 = call i32 @rb_st_lookup(ptr noundef %20, i64 noundef %21, ptr noundef nonnull %5) #22
  %.not4.i = icmp eq i32 %22, 0
  br i1 %.not4.i, label %get_transcoder_entry.exit, label %23

23:                                               ; preds = %18
  %24 = load i64, ptr %5, align 8, !tbaa !22
  %25 = inttoptr i64 %24 to ptr
  br label %get_transcoder_entry.exit

get_transcoder_entry.exit:                        ; preds = %14, %18, %23
  %.0.i = phi ptr [ %25, %23 ], [ null, %14 ], [ null, %18 ]
  call void @llvm.lifetime.end.p0(i64 8, ptr nonnull %5) #22
  %26 = load ptr, ptr %3, align 8, !tbaa !28
  %27 = sext i32 %2 to i64
  %28 = getelementptr ptr, ptr %26, i64 %27
  store ptr %.0.i, ptr %28, align 8, !tbaa !31
  ret void
}